; Function Attrs: nounwind uwtable
define void @php_var_serialize(ptr noundef %0, ptr noundef %1, ptr nocapture noundef readonly %2) local_unnamed_addr #0 {
  %4 = load ptr, ptr %2, align 8
  tail call fastcc void @php_var_serialize_intern(ptr noundef %0, ptr noundef %1, ptr noundef %4, i1 noundef zeroext false, i1 noundef zeroext true)
  %5 = load ptr, ptr %0, align 8
  %.not = icmp eq ptr %5, null
  br i1 %.not, label %11, label %6

6:                                                ; preds = %3
  %7 = getelementptr inbounds i8, ptr %5, i64 24
  %8 = getelementptr inbounds i8, ptr %5, i64 16
  %9 = load i64, ptr %8, align 8
  %10 = getelementptr inbounds [1 x i8], ptr %7, i64 0, i64 %9
  store i8 0, ptr %10, align 1
  br label %11

11:                                               ; preds = %6, %3
  ret void
}